; Function Attrs: mustprogress uwtable
define noundef ptr @Z3_mk_bvmsb(ptr noundef initializes((1568, 1572)) %0, ptr noundef %1) local_unnamed_addr #3 personality ptr @__gxx_personality_v0 {
  %3 = getelementptr inbounds nuw i8, ptr %0, i64 1568
  store i32 0, ptr %3, align 8, !tbaa !3
  %4 = invoke i32 @Z3_get_bv_sort_size(ptr noundef nonnull %0, ptr noundef %1)
          to label %5 unwind label %8

5:                                                ; preds = %2
  %6 = icmp eq i32 %4, 0
  br i1 %6, label %7, label %10

7:                                                ; preds = %5
  invoke void @_ZN3api7context14set_error_codeE13Z3_error_codePKc(ptr noundef nonnull align 8 dereferenceable(3056) %0, i32 noundef 3, ptr noundef nonnull @.str.1)
          to label %36 unwind label %8

8:                                                ; preds = %7, %2
  %9 = landingpad { ptr, i32 }
          cleanup
          catch ptr @_ZTI12z3_exception
  br label %28

10:                                               ; preds = %5
  %11 = invoke ptr @Z3_mk_int64(ptr noundef nonnull %0, i64 noundef 1, ptr noundef %1)
          to label %12 unwind label %22

12:                                               ; preds = %10
  invoke void @Z3_inc_ref(ptr noundef nonnull %0, ptr noundef %11)
          to label %13 unwind label %22

13:                                               ; preds = %12
  %14 = add i32 %4, -1
  %15 = zext i32 %14 to i64
  %16 = invoke ptr @Z3_mk_int64(ptr noundef nonnull %0, i64 noundef %15, ptr noundef %1)
          to label %17 unwind label %24

17:                                               ; preds = %13
  invoke void @Z3_inc_ref(ptr noundef nonnull %0, ptr noundef %16)
          to label %18 unwind label %24

18:                                               ; preds = %17
  %19 = invoke ptr @Z3_mk_bvshl(ptr noundef nonnull %0, ptr noundef %11, ptr noundef %16)
          to label %20 unwind label %26

20:                                               ; preds = %18
  invoke void @Z3_dec_ref(ptr noundef nonnull %0, ptr noundef %11)
          to label %21 unwind label %26

21:                                               ; preds = %20
  invoke void @Z3_dec_ref(ptr noundef nonnull %0, ptr noundef %16)
          to label %36 unwind label %26

22:                                               ; preds = %12, %10
  %23 = landingpad { ptr, i32 }
          cleanup
          catch ptr @_ZTI12z3_exception
  br label %28

24:                                               ; preds = %17, %13
  %25 = landingpad { ptr, i32 }
          cleanup
          catch ptr @_ZTI12z3_exception
  br label %28

26:                                               ; preds = %21, %20, %18
  %27 = landingpad { ptr, i32 }
          cleanup
          catch ptr @_ZTI12z3_exception
  br label %28

28:                                               ; preds = %22, %26, %24, %8
  %.pn37 = phi { ptr, i32 } [ %9, %8 ], [ %23, %22 ], [ %27, %26 ], [ %25, %24 ]
  %.030 = extractvalue { ptr, i32 } %.pn37, 1
  %29 = tail call i32 @llvm.eh.typeid.for.p0(ptr nonnull @_ZTI12z3_exception) #15
  %30 = icmp eq i32 %.030, %29
  br i1 %30, label %31, label %37

31:                                               ; preds = %28
  %.028 = extractvalue { ptr, i32 } %.pn37, 0
  %32 = tail call ptr @__cxa_begin_catch(ptr %.028) #15
  invoke void @_ZN3api7context16handle_exceptionER12z3_exception(ptr noundef nonnull align 8 dereferenceable(3056) %0, ptr noundef nonnull align 8 dereferenceable(8) %32)
          to label %33 unwind label %34

33:                                               ; preds = %31
  tail call void @__cxa_end_catch()
  br label %36

34:                                               ; preds = %31
  %35 = landingpad { ptr, i32 }
          cleanup
  invoke void @__cxa_end_catch()
          to label %37 unwind label %38

36:                                               ; preds = %7, %21, %33
  %.1 = phi ptr [ null, %33 ], [ null, %7 ], [ %19, %21 ]
  ret ptr %.1

37:                                               ; preds = %34, %28
  %.merged = phi { ptr, i32 } [ %.pn37, %28 ], [ %35, %34 ]
  resume { ptr, i32 } %.merged

38:                                               ; preds = %34
  %39 = landingpad { ptr, i32 }
          catch ptr null
  %40 = extractvalue { ptr, i32 } %39, 0
  tail call void @__clang_call_terminate(ptr %40) #16
  unreachable
}